target datalayout = "e-m:e-p270:32:32-p271:32:32-p272:64:64-i64:64-i128:128-f80:128-n8:16:32:64-S128"
target triple = "x86_64-unknown-linux-gnu"

%"struct.bound_propagator::bound" = type { %class.mpq, double, i32, i32, %union.anon, ptr }
%class.mpq = type { %class.mpz, %class.mpz }
%class.mpz = type { i32, i8, ptr }
%union.anon = type { i32 }
%class.bound_propagator = type { ptr, ptr, %class.linear_equation_manager, %class.svector.4, %class.svector.0, %class.svector.0, %class.ptr_vector, %class.ptr_vector, %class.vector.7, %class.svector.8, i32, %class.svector.2, %class.svector.2, %class.svector.2, i32, i32, %class.mpq, %class.svector.10, %class.svector.2, i32, double, double, double, i32, i32, i32, %class.svector.12 }
%class.linear_equation_manager = type { ptr, ptr, %class.numeral_buffer, %class.numeral_buffer, %class.svector.0, %class.svector.2 }
%class.numeral_buffer = type { ptr, %class.svector }
%class.svector = type { %class.vector }
%class.vector = type { ptr }
%class.svector.4 = type { %class.vector.5 }
%class.vector.5 = type { ptr }
%class.svector.0 = type { %class.vector.1 }
%class.vector.1 = type { ptr }
%class.ptr_vector = type { %class.vector.6 }
%class.vector.6 = type { ptr }
%class.vector.7 = type { ptr }
%class.svector.8 = type { %class.vector.9 }
%class.vector.9 = type { ptr }
%class.svector.10 = type { %class.vector.11 }
%class.vector.11 = type { ptr }
%class.svector.2 = type { %class.vector.3 }
%class.vector.3 = type { ptr }
%class.svector.12 = type { %class.vector.13 }
%class.vector.13 = type { ptr }
%"class.std::__cxx11::basic_string" = type { %"struct.std::__cxx11::basic_string<char>::_Alloc_hider", i64, %union.anon.19 }
%"struct.std::__cxx11::basic_string<char>::_Alloc_hider" = type { ptr }
%union.anon.19 = type { i64, [8 x i8] }

@.str.12 = private unnamed_addr constant [4 x i8] c" | \00", align 1
@.str.13 = private unnamed_addr constant [2 x i8] c" \00", align 1
@.str.14 = private unnamed_addr constant [2 x i8] c"<\00", align 1
@.str.15 = private unnamed_addr constant [3 x i8] c"<=\00", align 1
@.str.16 = private unnamed_addr constant [6 x i8] c"-oo <\00", align 1
@.str.17 = private unnamed_addr constant [3 x i8] c" x\00", align 1
@.str.18 = private unnamed_addr constant [5 x i8] c"< oo\00", align 1

; Function Attrs: mustprogress nounwind uwtable
define linkonce_odr hidden noundef nonnull align 8 dereferenceable(8) ptr @_ZNK6vectorIPN16bound_propagator5boundELb0EjEixEj(ptr noundef nonnull align 8 dereferenceable(8) %this, i32 noundef %idx) #5 comdat align 2 {
entry:
  %this.addr = alloca ptr, align 8
  %idx.addr = alloca i32, align 4
  store ptr %this, ptr %this.addr, align 8
  store i32 %idx, ptr %idx.addr, align 4
  %this1 = load ptr, ptr %this.addr, align 8
  %m_data = getelementptr inbounds %class.vector.6, ptr %this1, i32 0, i32 0
  %0 = load ptr, ptr %m_data, align 8
  %1 = load i32, ptr %idx.addr, align 4
  %idxprom = zext i32 %1 to i64
  %arrayidx = getelementptr inbounds ptr, ptr %0, i64 %idxprom
  ret ptr %arrayidx
}

; Function Attrs: mustprogress uwtable
define hidden void @_ZNK16bound_propagator18display_var_boundsERSojbb(ptr noundef nonnull align 8 dereferenceable(280) %this, ptr noundef nonnull align 8 dereferenceable(8) %out, i32 noundef %x, i1 noundef zeroext %approx, i1 noundef zeroext %precise) #4 align 2 personality ptr @__gxx_personality_v0 {
entry:
  %this.addr = alloca ptr, align 8
  %out.addr = alloca ptr, align 8
  %x.addr = alloca i32, align 4
  %approx.addr = alloca i8, align 1
  %precise.addr = alloca i8, align 1
  %ref.tmp = alloca %"class.std::__cxx11::basic_string", align 8
  %exn.slot = alloca ptr, align 8
  %ehselector.slot = alloca i32, align 4
  %ref.tmp44 = alloca %"class.std::__cxx11::basic_string", align 8
  store ptr %this, ptr %this.addr, align 8
  store ptr %out, ptr %out.addr, align 8
  store i32 %x, ptr %x.addr, align 4
  %frombool = zext i1 %approx to i8
  store i8 %frombool, ptr %approx.addr, align 1
  %frombool1 = zext i1 %precise to i8
  store i8 %frombool1, ptr %precise.addr, align 1
  %this2 = load ptr, ptr %this.addr, align 8
  %m_lowers = getelementptr inbounds %class.bound_propagator, ptr %this2, i32 0, i32 6
  %0 = load i32, ptr %x.addr, align 4
  %call = call noundef nonnull align 8 dereferenceable(8) ptr @_ZNK6vectorIPN16bound_propagator5boundELb0EjEixEj(ptr noundef nonnull align 8 dereferenceable(8) %m_lowers, i32 noundef %0)
  %1 = load ptr, ptr %call, align 8
  %tobool = icmp ne ptr %1, null
  br i1 %tobool, label %if.then, label %if.else

if.then:                                          ; preds = %entry
  %2 = load i8, ptr %precise.addr, align 1
  %tobool3 = trunc i8 %2 to i1
  br i1 %tobool3, label %if.then4, label %if.end

if.then4:                                         ; preds = %if.then
  %3 = load ptr, ptr %out.addr, align 8
  %m = getelementptr inbounds %class.bound_propagator, ptr %this2, i32 0, i32 0
  %4 = load ptr, ptr %m, align 8
  %m_lowers5 = getelementptr inbounds %class.bound_propagator, ptr %this2, i32 0, i32 6
  %5 = load i32, ptr %x.addr, align 4
  %call6 = call noundef nonnull align 8 dereferenceable(8) ptr @_ZNK6vectorIPN16bound_propagator5boundELb0EjEixEj(ptr noundef nonnull align 8 dereferenceable(8) %m_lowers5, i32 noundef %5)
  %6 = load ptr, ptr %call6, align 8
  %m_k = getelementptr inbounds %"struct.bound_propagator::bound", ptr %6, i32 0, i32 0
  call void @_ZNK11mpq_managerILb0EE9to_stringB5cxx11ERK3mpq(ptr sret(%"class.std::__cxx11::basic_string") align 8 %ref.tmp, ptr noundef nonnull align 8 dereferenceable(728) %4, ptr noundef nonnull align 8 dereferenceable(32) %m_k)
  %call7 = invoke noundef nonnull align 8 dereferenceable(8) ptr @_ZStlsIcSt11char_traitsIcESaIcEERSt13basic_ostreamIT_T0_ES7_RKNSt7__cxx1112basic_stringIS4_S5_T1_EE(ptr noundef nonnull align 8 dereferenceable(8) %3, ptr noundef nonnull align 8 dereferenceable(32) %ref.tmp)
          to label %invoke.cont unwind label %lpad

invoke.cont:                                      ; preds = %if.then4
  call void @_ZNSt7__cxx1112basic_stringIcSt11char_traitsIcESaIcEED1Ev(ptr noundef nonnull align 8 dereferenceable(32) %ref.tmp) #3
  br label %if.end

lpad:                                             ; preds = %if.then4
  %7 = landingpad { ptr, i32 }
          cleanup
  %8 = extractvalue { ptr, i32 } %7, 0
  store ptr %8, ptr %exn.slot, align 8
  %9 = extractvalue { ptr, i32 } %7, 1
  store i32 %9, ptr %ehselector.slot, align 4
  call void @_ZNSt7__cxx1112basic_stringIcSt11char_traitsIcESaIcEED1Ev(ptr noundef nonnull align 8 dereferenceable(32) %ref.tmp) #3
  br label %eh.resume

if.end:                                           ; preds = %invoke.cont, %if.then
  %10 = load i8, ptr %precise.addr, align 1
  %tobool8 = trunc i8 %10 to i1
  br i1 %tobool8, label %land.lhs.true, label %if.end12

land.lhs.true:                                    ; preds = %if.end
  %11 = load i8, ptr %approx.addr, align 1
  %tobool9 = trunc i8 %11 to i1
  br i1 %tobool9, label %if.then10, label %if.end12

if.then10:                                        ; preds = %land.lhs.true
  %12 = load ptr, ptr %out.addr, align 8
  %call11 = call noundef nonnull align 8 dereferenceable(8) ptr @_ZStlsISt11char_traitsIcEERSt13basic_ostreamIcT_ES5_PKc(ptr noundef nonnull align 8 dereferenceable(8) %12, ptr noundef @.str.12)
  br label %if.end12

if.end12:                                         ; preds = %if.then10, %land.lhs.true, %if.end
  %13 = load i8, ptr %approx.addr, align 1
  %tobool13 = trunc i8 %13 to i1
  br i1 %tobool13, label %if.then14, label %if.end18

if.then14:                                        ; preds = %if.end12
  %14 = load ptr, ptr %out.addr, align 8
  %m_lowers15 = getelementptr inbounds %class.bound_propagator, ptr %this2, i32 0, i32 6
  %15 = load i32, ptr %x.addr, align 4
  %call16 = call noundef nonnull align 8 dereferenceable(8) ptr @_ZNK6vectorIPN16bound_propagator5boundELb0EjEixEj(ptr noundef nonnull align 8 dereferenceable(8) %m_lowers15, i32 noundef %15)
  %16 = load ptr, ptr %call16, align 8
  %m_approx_k = getelementptr inbounds %"struct.bound_propagator::bound", ptr %16, i32 0, i32 1
  %17 = load double, ptr %m_approx_k, align 8
  %call17 = call noundef nonnull align 8 dereferenceable(8) ptr @_ZNSolsEd(ptr noundef nonnull align 8 dereferenceable(8) %14, double noundef %17)
  br label %if.end18

if.end18:                                         ; preds = %if.then14, %if.end12
  %18 = load ptr, ptr %out.addr, align 8
  %call19 = call noundef nonnull align 8 dereferenceable(8) ptr @_ZStlsISt11char_traitsIcEERSt13basic_ostreamIcT_ES5_PKc(ptr noundef nonnull align 8 dereferenceable(8) %18, ptr noundef @.str.13)
  %m_lowers20 = getelementptr inbounds %class.bound_propagator, ptr %this2, i32 0, i32 6
  %19 = load i32, ptr %x.addr, align 4
  %call21 = call noundef nonnull align 8 dereferenceable(8) ptr @_ZNK6vectorIPN16bound_propagator5boundELb0EjEixEj(ptr noundef nonnull align 8 dereferenceable(8) %m_lowers20, i32 noundef %19)
  %20 = load ptr, ptr %call21, align 8
  %m_strict = getelementptr inbounds %"struct.bound_propagator::bound", ptr %20, i32 0, i32 2
  %bf.load = load i32, ptr %m_strict, align 8
  %bf.lshr = lshr i32 %bf.load, 1
  %bf.clear = and i32 %bf.lshr, 1
  %tobool22 = icmp ne i32 %bf.clear, 0
  %cond = select i1 %tobool22, ptr @.str.14, ptr @.str.15
  %call23 = call noundef nonnull align 8 dereferenceable(8) ptr @_ZStlsISt11char_traitsIcEERSt13basic_ostreamIcT_ES5_PKc(ptr noundef nonnull align 8 dereferenceable(8) %call19, ptr noundef %cond)
  br label %if.end25

if.else:                                          ; preds = %entry
  %21 = load ptr, ptr %out.addr, align 8
  %call24 = call noundef nonnull align 8 dereferenceable(8) ptr @_ZStlsISt11char_traitsIcEERSt13basic_ostreamIcT_ES5_PKc(ptr noundef nonnull align 8 dereferenceable(8) %21, ptr noundef @.str.16)
  br label %if.end25

if.end25:                                         ; preds = %if.else, %if.end18
  %22 = load ptr, ptr %out.addr, align 8
  %call26 = call noundef nonnull align 8 dereferenceable(8) ptr @_ZStlsISt11char_traitsIcEERSt13basic_ostreamIcT_ES5_PKc(ptr noundef nonnull align 8 dereferenceable(8) %22, ptr noundef @.str.17)
  %23 = load i32, ptr %x.addr, align 4
  %call27 = call noundef nonnull align 8 dereferenceable(8) ptr @_ZNSolsEj(ptr noundef nonnull align 8 dereferenceable(8) %call26, i32 noundef %23)
  %call28 = call noundef nonnull align 8 dereferenceable(8) ptr @_ZStlsISt11char_traitsIcEERSt13basic_ostreamIcT_ES5_PKc(ptr noundef nonnull align 8 dereferenceable(8) %call27, ptr noundef @.str.13)
  %m_uppers = getelementptr inbounds %class.bound_propagator, ptr %this2, i32 0, i32 7
  %24 = load i32, ptr %x.addr, align 4
  %call29 = call noundef nonnull align 8 dereferenceable(8) ptr @_ZNK6vectorIPN16bound_propagator5boundELb0EjEixEj(ptr noundef nonnull align 8 dereferenceable(8) %m_uppers, i32 noundef %24)
  %25 = load ptr, ptr %call29, align 8
  %tobool30 = icmp ne ptr %25, null
  br i1 %tobool30, label %if.then31, label %if.else66

if.then31:                                        ; preds = %if.end25
  %26 = load ptr, ptr %out.addr, align 8
  %m_uppers32 = getelementptr inbounds %class.bound_propagator, ptr %this2, i32 0, i32 7
  %27 = load i32, ptr %x.addr, align 4
  %call33 = call noundef nonnull align 8 dereferenceable(8) ptr @_ZNK6vectorIPN16bound_propagator5boundELb0EjEixEj(ptr noundef nonnull align 8 dereferenceable(8) %m_uppers32, i32 noundef %27)
  %28 = load ptr, ptr %call33, align 8
  %m_strict34 = getelementptr inbounds %"struct.bound_propagator::bound", ptr %28, i32 0, i32 2
  %bf.load35 = load i32, ptr %m_strict34, align 8
  %bf.lshr36 = lshr i32 %bf.load35, 1
  %bf.clear37 = and i32 %bf.lshr36, 1
  %tobool38 = icmp ne i32 %bf.clear37, 0
  %cond39 = select i1 %tobool38, ptr @.str.14, ptr @.str.15
  %call40 = call noundef nonnull align 8 dereferenceable(8) ptr @_ZStlsISt11char_traitsIcEERSt13basic_ostreamIcT_ES5_PKc(ptr noundef nonnull align 8 dereferenceable(8) %26, ptr noundef %cond39)
  %call41 = call noundef nonnull align 8 dereferenceable(8) ptr @_ZStlsISt11char_traitsIcEERSt13basic_ostreamIcT_ES5_PKc(ptr noundef nonnull align 8 dereferenceable(8) %call40, ptr noundef @.str.13)
  %29 = load i8, ptr %precise.addr, align 1
  %tobool42 = trunc i8 %29 to i1
  br i1 %tobool42, label %if.then43, label %if.end52

if.then43:                                        ; preds = %if.then31
  %30 = load ptr, ptr %out.addr, align 8
  %m45 = getelementptr inbounds %class.bound_propagator, ptr %this2, i32 0, i32 0
  %31 = load ptr, ptr %m45, align 8
  %m_uppers46 = getelementptr inbounds %class.bound_propagator, ptr %this2, i32 0, i32 7
  %32 = load i32, ptr %x.addr, align 4
  %call47 = call noundef nonnull align 8 dereferenceable(8) ptr @_ZNK6vectorIPN16bound_propagator5boundELb0EjEixEj(ptr noundef nonnull align 8 dereferenceable(8) %m_uppers46, i32 noundef %32)
  %33 = load ptr, ptr %call47, align 8
  %m_k48 = getelementptr inbounds %"struct.bound_propagator::bound", ptr %33, i32 0, i32 0
  call void @_ZNK11mpq_managerILb0EE9to_stringB5cxx11ERK3mpq(ptr sret(%"class.std::__cxx11::basic_string") align 8 %ref.tmp44, ptr noundef nonnull align 8 dereferenceable(728) %31, ptr noundef nonnull align 8 dereferenceable(32) %m_k48)
  %call51 = invoke noundef nonnull align 8 dereferenceable(8) ptr @_ZStlsIcSt11char_traitsIcESaIcEERSt13basic_ostreamIT_T0_ES7_RKNSt7__cxx1112basic_stringIS4_S5_T1_EE(ptr noundef nonnull align 8 dereferenceable(8) %30, ptr noundef nonnull align 8 dereferenceable(32) %ref.tmp44)
          to label %invoke.cont50 unwind label %lpad49

invoke.cont50:                                    ; preds = %if.then43
  call void @_ZNSt7__cxx1112basic_stringIcSt11char_traitsIcESaIcEED1Ev(ptr noundef nonnull align 8 dereferenceable(32) %ref.tmp44) #3
  br label %if.end52

lpad49:                                           ; preds = %if.then43
  %34 = landingpad { ptr, i32 }
          cleanup
  %35 = extractvalue { ptr, i32 } %34, 0
  store ptr %35, ptr %exn.slot, align 8
  %36 = extractvalue { ptr, i32 } %34, 1
  store i32 %36, ptr %ehselector.slot, align 4
  call void @_ZNSt7__cxx1112basic_stringIcSt11char_traitsIcESaIcEED1Ev(ptr noundef nonnull align 8 dereferenceable(32) %ref.tmp44) #3
  br label %eh.resume

if.end52:                                         ; preds = %invoke.cont50, %if.then31
  %37 = load i8, ptr %precise.addr, align 1
  %tobool53 = trunc i8 %37 to i1
  br i1 %tobool53, label %land.lhs.true54, label %if.end58

land.lhs.true54:                                  ; preds = %if.end52
  %38 = load i8, ptr %approx.addr, align 1
  %tobool55 = trunc i8 %38 to i1
  br i1 %tobool55, label %if.then56, label %if.end58

if.then56:                                        ; preds = %land.lhs.true54
  %39 = load ptr, ptr %out.addr, align 8
  %call57 = call noundef nonnull align 8 dereferenceable(8) ptr @_ZStlsISt11char_traitsIcEERSt13basic_ostreamIcT_ES5_PKc(ptr noundef nonnull align 8 dereferenceable(8) %39, ptr noundef @.str.12)
  br label %if.end58

if.end58:                                         ; preds = %if.then56, %land.lhs.true54, %if.end52
  %40 = load i8, ptr %approx.addr, align 1
  %tobool59 = trunc i8 %40 to i1
  br i1 %tobool59, label %if.then60, label %if.end65

if.then60:                                        ; preds = %if.end58
  %41 = load ptr, ptr %out.addr, align 8
  %m_uppers61 = getelementptr inbounds %class.bound_propagator, ptr %this2, i32 0, i32 7
  %42 = load i32, ptr %x.addr, align 4
  %call62 = call noundef nonnull align 8 dereferenceable(8) ptr @_ZNK6vectorIPN16bound_propagator5boundELb0EjEixEj(ptr noundef nonnull align 8 dereferenceable(8) %m_uppers61, i32 noundef %42)
  %43 = load ptr, ptr %call62, align 8
  %m_approx_k63 = getelementptr inbounds %"struct.bound_propagator::bound", ptr %43, i32 0, i32 1
  %44 = load double, ptr %m_approx_k63, align 8
  %call64 = call noundef nonnull align 8 dereferenceable(8) ptr @_ZNSolsEd(ptr noundef nonnull align 8 dereferenceable(8) %41, double noundef %44)
  br label %if.end65

if.end65:                                         ; preds = %if.then60, %if.end58
  br label %if.end68

if.else66:                                        ; preds = %if.end25
  %45 = load ptr, ptr %out.addr, align 8
  %call67 = call noundef nonnull align 8 dereferenceable(8) ptr @_ZStlsISt11char_traitsIcEERSt13basic_ostreamIcT_ES5_PKc(ptr noundef nonnull align 8 dereferenceable(8) %45, ptr noundef @.str.18)
  br label %if.end68

if.end68:                                         ; preds = %if.else66, %if.end65
  ret void

eh.resume:                                        ; preds = %lpad49, %lpad
  %exn = load ptr, ptr %exn.slot, align 8
  %sel = load i32, ptr %ehselector.slot, align 4
  %lpad.val = insertvalue { ptr, i32 } poison, ptr %exn, 0
  %lpad.val69 = insertvalue { ptr, i32 } %lpad.val, i32 %sel, 1
  resume { ptr, i32 } %lpad.val69
}