; Function Attrs: mustprogress uwtable
define hidden void @_ZNK16bound_propagator18display_var_boundsERSojbb(ptr nocapture noundef nonnull readonly align 8 dereferenceable(280) %this, ptr noundef nonnull align 8 dereferenceable(8) %out, i32 noundef %x, i1 noundef zeroext %approx, i1 noundef zeroext %precise) local_unnamed_addr #3 align 2 personality ptr @__gxx_personality_v0 {
entry:
  %ref.tmp = alloca %"class.std::__cxx11::basic_string", align 8
  %ref.tmp44 = alloca %"class.std::__cxx11::basic_string", align 8
  %m_lowers = getelementptr inbounds i8, ptr %this, i64 104
  %0 = load ptr, ptr %m_lowers, align 8
  %idxprom.i = zext i32 %x to i64
  %arrayidx.i = getelementptr inbounds ptr, ptr %0, i64 %idxprom.i
  %1 = load ptr, ptr %arrayidx.i, align 8
  %tobool.not = icmp eq ptr %1, null
  br i1 %tobool.not, label %if.else, label %if.then

if.then:                                          ; preds = %entry
  br i1 %precise, label %if.then4, label %if.end12

if.then4:                                         ; preds = %if.then
  %2 = load ptr, ptr %this, align 8
  call void @_ZNK11mpq_managerILb0EE9to_stringB5cxx11ERK3mpq(ptr nonnull sret(%"class.std::__cxx11::basic_string") align 8 %ref.tmp, ptr noundef nonnull align 8 dereferenceable(728) %2, ptr noundef nonnull align 8 dereferenceable(32) %1)
  %call7 = invoke noundef nonnull align 8 dereferenceable(8) ptr @_ZStlsIcSt11char_traitsIcESaIcEERSt13basic_ostreamIT_T0_ES7_RKNSt7__cxx1112basic_stringIS4_S5_T1_EE(ptr noundef nonnull align 8 dereferenceable(8) %out, ptr noundef nonnull align 8 dereferenceable(32) %ref.tmp)
          to label %invoke.cont unwind label %lpad

invoke.cont:                                      ; preds = %if.then4
  call void @_ZNSt7__cxx1112basic_stringIcSt11char_traitsIcESaIcEED1Ev(ptr noundef nonnull align 8 dereferenceable(32) %ref.tmp) #18
  br i1 %approx, label %if.end12.thread, label %if.end18

lpad:                                             ; preds = %if.then4
  %3 = landingpad { ptr, i32 }
          cleanup
  br label %eh.resume

if.end12.thread:                                  ; preds = %invoke.cont
  %call11 = call noundef nonnull align 8 dereferenceable(8) ptr @_ZStlsISt11char_traitsIcEERSt13basic_ostreamIcT_ES5_PKc(ptr noundef nonnull align 8 dereferenceable(8) %out, ptr noundef nonnull @.str.12)
  br label %if.then14

if.end12:                                         ; preds = %if.then
  br i1 %approx, label %if.then14, label %if.end18

if.then14:                                        ; preds = %if.end12.thread, %if.end12
  %4 = load ptr, ptr %m_lowers, align 8
  %arrayidx.i32 = getelementptr inbounds ptr, ptr %4, i64 %idxprom.i
  %5 = load ptr, ptr %arrayidx.i32, align 8
  %m_approx_k = getelementptr inbounds i8, ptr %5, i64 32
  %6 = load double, ptr %m_approx_k, align 8
  %call17 = call noundef nonnull align 8 dereferenceable(8) ptr @_ZNSolsEd(ptr noundef nonnull align 8 dereferenceable(8) %out, double noundef %6)
  br label %if.end18

if.end18:                                         ; preds = %invoke.cont, %if.then14, %if.end12
  %call19 = call noundef nonnull align 8 dereferenceable(8) ptr @_ZStlsISt11char_traitsIcEERSt13basic_ostreamIcT_ES5_PKc(ptr noundef nonnull align 8 dereferenceable(8) %out, ptr noundef nonnull @.str.13)
  %7 = load ptr, ptr %m_lowers, align 8
  %arrayidx.i34 = getelementptr inbounds ptr, ptr %7, i64 %idxprom.i
  %8 = load ptr, ptr %arrayidx.i34, align 8
  %m_strict = getelementptr inbounds i8, ptr %8, i64 40
  %bf.load = load i32, ptr %m_strict, align 8
  %9 = and i32 %bf.load, 2
  %tobool22.not = icmp eq i32 %9, 0
  %cond = select i1 %tobool22.not, ptr @.str.15, ptr @.str.14
  %call23 = call noundef nonnull align 8 dereferenceable(8) ptr @_ZStlsISt11char_traitsIcEERSt13basic_ostreamIcT_ES5_PKc(ptr noundef nonnull align 8 dereferenceable(8) %call19, ptr noundef nonnull %cond)
  br label %if.end25

if.else:                                          ; preds = %entry
  %call24 = tail call noundef nonnull align 8 dereferenceable(8) ptr @_ZStlsISt11char_traitsIcEERSt13basic_ostreamIcT_ES5_PKc(ptr noundef nonnull align 8 dereferenceable(8) %out, ptr noundef nonnull @.str.16)
  br label %if.end25

if.end25:                                         ; preds = %if.else, %if.end18
  %call26 = call noundef nonnull align 8 dereferenceable(8) ptr @_ZStlsISt11char_traitsIcEERSt13basic_ostreamIcT_ES5_PKc(ptr noundef nonnull align 8 dereferenceable(8) %out, ptr noundef nonnull @.str.17)
  %call27 = call noundef nonnull align 8 dereferenceable(8) ptr @_ZNSolsEj(ptr noundef nonnull align 8 dereferenceable(8) %call26, i32 noundef %x)
  %call28 = call noundef nonnull align 8 dereferenceable(8) ptr @_ZStlsISt11char_traitsIcEERSt13basic_ostreamIcT_ES5_PKc(ptr noundef nonnull align 8 dereferenceable(8) %call27, ptr noundef nonnull @.str.13)
  %m_uppers = getelementptr inbounds i8, ptr %this, i64 112
  %10 = load ptr, ptr %m_uppers, align 8
  %arrayidx.i36 = getelementptr inbounds ptr, ptr %10, i64 %idxprom.i
  %11 = load ptr, ptr %arrayidx.i36, align 8
  %tobool30.not = icmp eq ptr %11, null
  br i1 %tobool30.not, label %if.else66, label %if.then31

if.then31:                                        ; preds = %if.end25
  %m_strict34 = getelementptr inbounds i8, ptr %11, i64 40
  %bf.load35 = load i32, ptr %m_strict34, align 8
  %12 = and i32 %bf.load35, 2
  %tobool38.not = icmp eq i32 %12, 0
  %cond39 = select i1 %tobool38.not, ptr @.str.15, ptr @.str.14
  %call40 = call noundef nonnull align 8 dereferenceable(8) ptr @_ZStlsISt11char_traitsIcEERSt13basic_ostreamIcT_ES5_PKc(ptr noundef nonnull align 8 dereferenceable(8) %out, ptr noundef nonnull %cond39)
  %call41 = call noundef nonnull align 8 dereferenceable(8) ptr @_ZStlsISt11char_traitsIcEERSt13basic_ostreamIcT_ES5_PKc(ptr noundef nonnull align 8 dereferenceable(8) %call40, ptr noundef nonnull @.str.13)
  br i1 %precise, label %if.then43, label %if.end58

if.then43:                                        ; preds = %if.then31
  %13 = load ptr, ptr %this, align 8
  %14 = load ptr, ptr %m_uppers, align 8
  %arrayidx.i40 = getelementptr inbounds ptr, ptr %14, i64 %idxprom.i
  %15 = load ptr, ptr %arrayidx.i40, align 8
  call void @_ZNK11mpq_managerILb0EE9to_stringB5cxx11ERK3mpq(ptr nonnull sret(%"class.std::__cxx11::basic_string") align 8 %ref.tmp44, ptr noundef nonnull align 8 dereferenceable(728) %13, ptr noundef nonnull align 8 dereferenceable(32) %15)
  %call51 = invoke noundef nonnull align 8 dereferenceable(8) ptr @_ZStlsIcSt11char_traitsIcESaIcEERSt13basic_ostreamIT_T0_ES7_RKNSt7__cxx1112basic_stringIS4_S5_T1_EE(ptr noundef nonnull align 8 dereferenceable(8) %out, ptr noundef nonnull align 8 dereferenceable(32) %ref.tmp44)
          to label %invoke.cont50 unwind label %lpad49

invoke.cont50:                                    ; preds = %if.then43
  call void @_ZNSt7__cxx1112basic_stringIcSt11char_traitsIcESaIcEED1Ev(ptr noundef nonnull align 8 dereferenceable(32) %ref.tmp44) #18
  br i1 %approx, label %if.end58.thread, label %if.end68

lpad49:                                           ; preds = %if.then43
  %16 = landingpad { ptr, i32 }
          cleanup
  br label %eh.resume

if.end58.thread:                                  ; preds = %invoke.cont50
  %call57 = call noundef nonnull align 8 dereferenceable(8) ptr @_ZStlsISt11char_traitsIcEERSt13basic_ostreamIcT_ES5_PKc(ptr noundef nonnull align 8 dereferenceable(8) %out, ptr noundef nonnull @.str.12)
  br label %if.then60

if.end58:                                         ; preds = %if.then31
  br i1 %approx, label %if.then60, label %if.end68

if.then60:                                        ; preds = %if.end58.thread, %if.end58
  %17 = load ptr, ptr %m_uppers, align 8
  %arrayidx.i42 = getelementptr inbounds ptr, ptr %17, i64 %idxprom.i
  %18 = load ptr, ptr %arrayidx.i42, align 8
  %m_approx_k63 = getelementptr inbounds i8, ptr %18, i64 32
  %19 = load double, ptr %m_approx_k63, align 8
  %call64 = call noundef nonnull align 8 dereferenceable(8) ptr @_ZNSolsEd(ptr noundef nonnull align 8 dereferenceable(8) %out, double noundef %19)
  br label %if.end68

if.else66:                                        ; preds = %if.end25
  %call67 = call noundef nonnull align 8 dereferenceable(8) ptr @_ZStlsISt11char_traitsIcEERSt13basic_ostreamIcT_ES5_PKc(ptr noundef nonnull align 8 dereferenceable(8) %out, ptr noundef nonnull @.str.18)
  br label %if.end68

if.end68:                                         ; preds = %invoke.cont50, %if.end58, %if.then60, %if.else66
  ret void

eh.resume:                                        ; preds = %lpad49, %lpad
  %ref.tmp44.sink = phi ptr [ %ref.tmp44, %lpad49 ], [ %ref.tmp, %lpad ]
  %.pn = phi { ptr, i32 } [ %16, %lpad49 ], [ %3, %lpad ]
  call void @_ZNSt7__cxx1112basic_stringIcSt11char_traitsIcESaIcEED1Ev(ptr noundef nonnull align 8 dereferenceable(32) %ref.tmp44.sink) #18
  resume { ptr, i32 } %.pn
}